target datalayout = "e-m:e-p270:32:32-p271:32:32-p272:64:64-i64:64-i128:128-f80:128-n8:16:32:64-S128"
target triple = "x86_64-pc-linux-gnu"

%struct._zend_random_globals = type { ptr, i8, ptr, i8, i32 }

; Function Attrs: nounwind uwtable
define void @php_random_status_free(ptr noundef %0, i1 noundef zeroext %1) #0 {
  %3 = alloca ptr, align 8
  %4 = alloca i8, align 1
  store ptr %0, ptr %3, align 8
  %5 = zext i1 %1 to i8
  store i8 %5, ptr %4, align 1
  %6 = load i8, ptr %4, align 1
  %7 = trunc i8 %6 to i1
  br i1 %7, label %8, label %10

8:                                                ; preds = %2
  %9 = load ptr, ptr %3, align 8
  call void @free(ptr noundef %9) #10
  br label %12

10:                                               ; preds = %2
  %11 = load ptr, ptr %3, align 8
  call void @_efree(ptr noundef %11)
  br label %12

12:                                               ; preds = %10, %8
  ret void
}

; Function Attrs: nounwind uwtable
define internal void @zm_globals_dtor_random(ptr noundef %0) #0 {
  %2 = alloca ptr, align 8
  store ptr %0, ptr %2, align 8
  %3 = load ptr, ptr %2, align 8
  %4 = getelementptr inbounds %struct._zend_random_globals, ptr %3, i32 0, i32 4
  %5 = load i32, ptr %4, align 4
  %6 = icmp sge i32 %5, 0
  br i1 %6, label %7, label %14

7:                                                ; preds = %1
  %8 = load ptr, ptr %2, align 8
  %9 = getelementptr inbounds %struct._zend_random_globals, ptr %8, i32 0, i32 4
  %10 = load i32, ptr %9, align 4
  %11 = call i32 @close(i32 noundef %10)
  %12 = load ptr, ptr %2, align 8
  %13 = getelementptr inbounds %struct._zend_random_globals, ptr %12, i32 0, i32 4
  store i32 -1, ptr %13, align 4
  br label %14

14:                                               ; preds = %7, %1
  %15 = load ptr, ptr %2, align 8
  %16 = getelementptr inbounds %struct._zend_random_globals, ptr %15, i32 0, i32 0
  %17 = load ptr, ptr %16, align 8
  call void @php_random_status_free(ptr noundef %17, i1 noundef zeroext true)
  %18 = load ptr, ptr %2, align 8
  %19 = getelementptr inbounds %struct._zend_random_globals, ptr %18, i32 0, i32 0
  store ptr null, ptr %19, align 8
  %20 = load ptr, ptr %2, align 8
  %21 = getelementptr inbounds %struct._zend_random_globals, ptr %20, i32 0, i32 2
  %22 = load ptr, ptr %21, align 8
  call void @php_random_status_free(ptr noundef %22, i1 noundef zeroext true)
  %23 = load ptr, ptr %2, align 8
  %24 = getelementptr inbounds %struct._zend_random_globals, ptr %23, i32 0, i32 2
  store ptr null, ptr %24, align 8
  ret void
}