; Function Attrs: nounwind uwtable
define internal void @zm_globals_dtor_random(ptr nocapture noundef %0) #0 {
  %2 = getelementptr inbounds i8, ptr %0, i64 28
  %3 = load i32, ptr %2, align 4
  %4 = icmp sgt i32 %3, -1
  br i1 %4, label %5, label %7

5:                                                ; preds = %1
  %6 = tail call i32 @close(i32 noundef %3) #13
  store i32 -1, ptr %2, align 4
  br label %7

7:                                                ; preds = %5, %1
  %8 = load ptr, ptr %0, align 8
  tail call void @free(ptr noundef %8) #13
  store ptr null, ptr %0, align 8
  %9 = getelementptr inbounds i8, ptr %0, i64 16
  %10 = load ptr, ptr %9, align 8
  tail call void @free(ptr noundef %10) #13
  store ptr null, ptr %9, align 8
  ret void
}